target datalayout = "e-m:e-p270:32:32-p271:32:32-p272:64:64-i64:64-i128:128-f80:128-n8:16:32:64-S128"
target triple = "x86_64-pc-linux-gnu"

%struct.AttrMap = type { ptr, i32 }
%struct.TupleDescData = type { i32, i32, i32, i32, ptr, [0 x %struct.CompactAttribute] }
%struct.CompactAttribute = type { i32, i16, i8, i8, i8, i8, i8, i8, i8 }
%struct.FormData_pg_attribute = type { i32, %struct.nameData, i32, i16, i16, i32, i16, i8, i8, i8, i8, i8, i8, i8, i8, i8, i8, i8, i16, i32 }
%struct.nameData = type { [64 x i8] }

@.str.2 = private unnamed_addr constant [9 x i8] c"attmap.c\00", align 1
@.str.4 = private unnamed_addr constant [27 x i8] c"could not convert row type\00", align 1
@.str.5 = private unnamed_addr constant [77 x i8] c"Attribute \22%s\22 of type %s does not match corresponding attribute of type %s.\00", align 1
@__func__.build_attrmap_by_name = private unnamed_addr constant [22 x i8] c"build_attrmap_by_name\00", align 1
@.str.6 = private unnamed_addr constant [53 x i8] c"Attribute \22%s\22 of type %s does not exist in type %s.\00", align 1

; Function Attrs: inlinehint nounwind uwtable
define internal ptr @TupleDescAttr(ptr noundef %0, i32 noundef %1) #3 {
  %3 = alloca ptr, align 8
  %4 = alloca i32, align 4
  %5 = alloca ptr, align 8
  store ptr %0, ptr %3, align 8
  store i32 %1, ptr %4, align 4
  call void @llvm.lifetime.start.p0(i64 8, ptr %5) #6
  %6 = load ptr, ptr %3, align 8
  %7 = load ptr, ptr %3, align 8
  %8 = getelementptr inbounds nuw %struct.TupleDescData, ptr %7, i32 0, i32 0
  %9 = load i32, ptr %8, align 8
  %10 = sext i32 %9 to i64
  %11 = mul i64 %10, 16
  %12 = add i64 24, %11
  %13 = getelementptr inbounds nuw i8, ptr %6, i64 %12
  store ptr %13, ptr %5, align 8
  %14 = load ptr, ptr %5, align 8
  %15 = load i32, ptr %4, align 4
  %16 = sext i32 %15 to i64
  %17 = getelementptr inbounds %struct.FormData_pg_attribute, ptr %14, i64 %16
  call void @llvm.lifetime.end.p0(i64 8, ptr %5) #6
  ret ptr %17
}

; Function Attrs: nounwind uwtable
define dso_local ptr @make_attrmap(i32 noundef %0) #0 {
  %2 = alloca i32, align 4
  %3 = alloca ptr, align 8
  store i32 %0, ptr %2, align 4
  call void @llvm.lifetime.start.p0(i64 8, ptr %3) #6
  %4 = call ptr @palloc0(i64 noundef 16)
  store ptr %4, ptr %3, align 8
  %5 = load i32, ptr %2, align 4
  %6 = load ptr, ptr %3, align 8
  %7 = getelementptr inbounds nuw %struct.AttrMap, ptr %6, i32 0, i32 1
  store i32 %5, ptr %7, align 8
  %8 = load i32, ptr %2, align 4
  %9 = sext i32 %8 to i64
  %10 = mul i64 2, %9
  %11 = call ptr @palloc0(i64 noundef %10)
  %12 = load ptr, ptr %3, align 8
  %13 = getelementptr inbounds nuw %struct.AttrMap, ptr %12, i32 0, i32 0
  store ptr %11, ptr %13, align 8
  %14 = load ptr, ptr %3, align 8
  call void @llvm.lifetime.end.p0(i64 8, ptr %3) #6
  ret ptr %14
}

; Function Attrs: nounwind uwtable
define dso_local ptr @build_attrmap_by_name(ptr noundef %0, ptr noundef %1, i1 noundef zeroext %2) #0 {
  %4 = alloca ptr, align 8
  %5 = alloca ptr, align 8
  %6 = alloca i8, align 1
  %7 = alloca ptr, align 8
  %8 = alloca i32, align 4
  %9 = alloca i32, align 4
  %10 = alloca i32, align 4
  %11 = alloca i32, align 4
  %12 = alloca ptr, align 8
  %13 = alloca ptr, align 8
  %14 = alloca i32, align 4
  %15 = alloca i32, align 4
  %16 = alloca i32, align 4
  %17 = alloca i32, align 4
  %18 = alloca ptr, align 8
  store ptr %0, ptr %4, align 8
  store ptr %1, ptr %5, align 8
  %19 = zext i1 %2 to i8
  store i8 %19, ptr %6, align 1
  call void @llvm.lifetime.start.p0(i64 8, ptr %7) #6
  call void @llvm.lifetime.start.p0(i64 4, ptr %8) #6
  call void @llvm.lifetime.start.p0(i64 4, ptr %9) #6
  call void @llvm.lifetime.start.p0(i64 4, ptr %10) #6
  call void @llvm.lifetime.start.p0(i64 4, ptr %11) #6
  store i32 -1, ptr %11, align 4
  %20 = load ptr, ptr %5, align 8
  %21 = getelementptr inbounds nuw %struct.TupleDescData, ptr %20, i32 0, i32 0
  %22 = load i32, ptr %21, align 8
  store i32 %22, ptr %8, align 4
  %23 = load ptr, ptr %4, align 8
  %24 = getelementptr inbounds nuw %struct.TupleDescData, ptr %23, i32 0, i32 0
  %25 = load i32, ptr %24, align 8
  store i32 %25, ptr %9, align 4
  %26 = load i32, ptr %8, align 4
  %27 = call ptr @make_attrmap(i32 noundef %26)
  store ptr %27, ptr %7, align 8
  store i32 0, ptr %10, align 4
  br label %28

28:                                               ; preds = %170, %3
  %29 = load i32, ptr %10, align 4
  %30 = load i32, ptr %8, align 4
  %31 = icmp slt i32 %29, %30
  br i1 %31, label %32, label %173

32:                                               ; preds = %28
  call void @llvm.lifetime.start.p0(i64 8, ptr %12) #6
  %33 = load ptr, ptr %5, align 8
  %34 = load i32, ptr %10, align 4
  %35 = call ptr @TupleDescAttr(ptr noundef %33, i32 noundef %34)
  store ptr %35, ptr %12, align 8
  call void @llvm.lifetime.start.p0(i64 8, ptr %13) #6
  call void @llvm.lifetime.start.p0(i64 4, ptr %14) #6
  call void @llvm.lifetime.start.p0(i64 4, ptr %15) #6
  call void @llvm.lifetime.start.p0(i64 4, ptr %16) #6
  %36 = load ptr, ptr %12, align 8
  %37 = getelementptr inbounds nuw %struct.FormData_pg_attribute, ptr %36, i32 0, i32 16
  %38 = load i8, ptr %37, align 1, !range !4, !noundef !5
  %39 = trunc i8 %38 to i1
  br i1 %39, label %40, label %41

40:                                               ; preds = %32
  store i32 4, ptr %17, align 4
  br label %167

41:                                               ; preds = %32
  %42 = load ptr, ptr %12, align 8
  %43 = getelementptr inbounds nuw %struct.FormData_pg_attribute, ptr %42, i32 0, i32 1
  %44 = getelementptr inbounds nuw %struct.nameData, ptr %43, i32 0, i32 0
  %45 = getelementptr inbounds [64 x i8], ptr %44, i64 0, i64 0
  store ptr %45, ptr %13, align 8
  %46 = load ptr, ptr %12, align 8
  %47 = getelementptr inbounds nuw %struct.FormData_pg_attribute, ptr %46, i32 0, i32 2
  %48 = load i32, ptr %47, align 4
  store i32 %48, ptr %14, align 4
  %49 = load ptr, ptr %12, align 8
  %50 = getelementptr inbounds nuw %struct.FormData_pg_attribute, ptr %49, i32 0, i32 5
  %51 = load i32, ptr %50, align 4
  store i32 %51, ptr %15, align 4
  store i32 0, ptr %16, align 4
  br label %52

52:                                               ; preds = %128, %41
  %53 = load i32, ptr %16, align 4
  %54 = load i32, ptr %9, align 4
  %55 = icmp slt i32 %53, %54
  br i1 %55, label %56, label %131

56:                                               ; preds = %52
  call void @llvm.lifetime.start.p0(i64 8, ptr %18) #6
  %57 = load i32, ptr %11, align 4
  %58 = add i32 %57, 1
  store i32 %58, ptr %11, align 4
  %59 = load i32, ptr %11, align 4
  %60 = load i32, ptr %9, align 4
  %61 = icmp sge i32 %59, %60
  br i1 %61, label %62, label %63

62:                                               ; preds = %56
  store i32 0, ptr %11, align 4
  br label %63

63:                                               ; preds = %62, %56
  %64 = load ptr, ptr %4, align 8
  %65 = load i32, ptr %11, align 4
  %66 = call ptr @TupleDescAttr(ptr noundef %64, i32 noundef %65)
  store ptr %66, ptr %18, align 8
  %67 = load ptr, ptr %18, align 8
  %68 = getelementptr inbounds nuw %struct.FormData_pg_attribute, ptr %67, i32 0, i32 16
  %69 = load i8, ptr %68, align 1, !range !4, !noundef !5
  %70 = trunc i8 %69 to i1
  br i1 %70, label %71, label %72

71:                                               ; preds = %63
  store i32 7, ptr %17, align 4
  br label %125

72:                                               ; preds = %63
  %73 = load ptr, ptr %13, align 8
  %74 = load ptr, ptr %18, align 8
  %75 = getelementptr inbounds nuw %struct.FormData_pg_attribute, ptr %74, i32 0, i32 1
  %76 = getelementptr inbounds nuw %struct.nameData, ptr %75, i32 0, i32 0
  %77 = getelementptr inbounds [64 x i8], ptr %76, i64 0, i64 0
  %78 = call i32 @strcmp(ptr noundef %73, ptr noundef %77) #8
  %79 = icmp eq i32 %78, 0
  br i1 %79, label %80, label %124

80:                                               ; preds = %72
  %81 = load i32, ptr %14, align 4
  %82 = load ptr, ptr %18, align 8
  %83 = getelementptr inbounds nuw %struct.FormData_pg_attribute, ptr %82, i32 0, i32 2
  %84 = load i32, ptr %83, align 4
  %85 = icmp ne i32 %81, %84
  br i1 %85, label %92, label %86

86:                                               ; preds = %80
  %87 = load i32, ptr %15, align 4
  %88 = load ptr, ptr %18, align 8
  %89 = getelementptr inbounds nuw %struct.FormData_pg_attribute, ptr %88, i32 0, i32 5
  %90 = load i32, ptr %89, align 4
  %91 = icmp ne i32 %87, %90
  br i1 %91, label %92, label %114

92:                                               ; preds = %86, %80
  br label %93

93:                                               ; preds = %92
  br i1 true, label %94, label %96

94:                                               ; preds = %93
  %95 = call zeroext i1 @errstart_cold(i32 noundef 21, ptr noundef null) #7
  br i1 %95, label %98, label %111

96:                                               ; preds = %93
  %97 = call zeroext i1 @errstart(i32 noundef 21, ptr noundef null)
  br i1 %97, label %98, label %111

98:                                               ; preds = %96, %94
  %99 = call i32 @errcode(i32 noundef 67141764)
  %100 = call i32 (ptr, ...) @errmsg(ptr noundef @.str.4)
  %101 = load ptr, ptr %13, align 8
  %102 = load ptr, ptr %5, align 8
  %103 = getelementptr inbounds nuw %struct.TupleDescData, ptr %102, i32 0, i32 1
  %104 = load i32, ptr %103, align 4
  %105 = call ptr @format_type_be(i32 noundef %104)
  %106 = load ptr, ptr %4, align 8
  %107 = getelementptr inbounds nuw %struct.TupleDescData, ptr %106, i32 0, i32 1
  %108 = load i32, ptr %107, align 4
  %109 = call ptr @format_type_be(i32 noundef %108)
  %110 = call i32 (ptr, ...) @errdetail(ptr noundef @.str.5, ptr noundef %101, ptr noundef %105, ptr noundef %109)
  call void @errfinish(ptr noundef @.str.2, i32 noundef 237, ptr noundef @__func__.build_attrmap_by_name)
  br label %111

111:                                              ; preds = %98, %96, %94
  unreachable

112:                                              ; No predecessors!
  br label %113

113:                                              ; preds = %112
  br label %114

114:                                              ; preds = %113, %86
  %115 = load ptr, ptr %18, align 8
  %116 = getelementptr inbounds nuw %struct.FormData_pg_attribute, ptr %115, i32 0, i32 4
  %117 = load i16, ptr %116, align 2
  %118 = load ptr, ptr %7, align 8
  %119 = getelementptr inbounds nuw %struct.AttrMap, ptr %118, i32 0, i32 0
  %120 = load ptr, ptr %119, align 8
  %121 = load i32, ptr %10, align 4
  %122 = sext i32 %121 to i64
  %123 = getelementptr inbounds i16, ptr %120, i64 %122
  store i16 %117, ptr %123, align 2
  store i32 5, ptr %17, align 4
  br label %125

124:                                              ; preds = %72
  store i32 0, ptr %17, align 4
  br label %125

125:                                              ; preds = %124, %114, %71
  call void @llvm.lifetime.end.p0(i64 8, ptr %18) #6
  %126 = load i32, ptr %17, align 4
  switch i32 %126, label %175 [
    i32 0, label %127
    i32 7, label %128
    i32 5, label %131
  ]

127:                                              ; preds = %125
  br label %128

128:                                              ; preds = %127, %125
  %129 = load i32, ptr %16, align 4
  %130 = add i32 %129, 1
  store i32 %130, ptr %16, align 4
  br label %52, !llvm.loop !11

131:                                              ; preds = %125, %52
  %132 = load ptr, ptr %7, align 8
  %133 = getelementptr inbounds nuw %struct.AttrMap, ptr %132, i32 0, i32 0
  %134 = load ptr, ptr %133, align 8
  %135 = load i32, ptr %10, align 4
  %136 = sext i32 %135 to i64
  %137 = getelementptr inbounds i16, ptr %134, i64 %136
  %138 = load i16, ptr %137, align 2
  %139 = sext i16 %138 to i32
  %140 = icmp eq i32 %139, 0
  br i1 %140, label %141, label %166

141:                                              ; preds = %131
  %142 = load i8, ptr %6, align 1, !range !4, !noundef !5
  %143 = trunc i8 %142 to i1
  br i1 %143, label %166, label %144

144:                                              ; preds = %141
  br label %145

145:                                              ; preds = %144
  br i1 true, label %146, label %148

146:                                              ; preds = %145
  %147 = call zeroext i1 @errstart_cold(i32 noundef 21, ptr noundef null) #7
  br i1 %147, label %150, label %163

148:                                              ; preds = %145
  %149 = call zeroext i1 @errstart(i32 noundef 21, ptr noundef null)
  br i1 %149, label %150, label %163

150:                                              ; preds = %148, %146
  %151 = call i32 @errcode(i32 noundef 67141764)
  %152 = call i32 (ptr, ...) @errmsg(ptr noundef @.str.4)
  %153 = load ptr, ptr %13, align 8
  %154 = load ptr, ptr %5, align 8
  %155 = getelementptr inbounds nuw %struct.TupleDescData, ptr %154, i32 0, i32 1
  %156 = load i32, ptr %155, align 4
  %157 = call ptr @format_type_be(i32 noundef %156)
  %158 = load ptr, ptr %4, align 8
  %159 = getelementptr inbounds nuw %struct.TupleDescData, ptr %158, i32 0, i32 1
  %160 = load i32, ptr %159, align 4
  %161 = call ptr @format_type_be(i32 noundef %160)
  %162 = call i32 (ptr, ...) @errdetail(ptr noundef @.str.6, ptr noundef %153, ptr noundef %157, ptr noundef %161)
  call void @errfinish(ptr noundef @.str.2, i32 noundef 249, ptr noundef @__func__.build_attrmap_by_name)
  br label %163

163:                                              ; preds = %150, %148, %146
  unreachable

164:                                              ; No predecessors!
  br label %165

165:                                              ; preds = %164
  br label %166

166:                                              ; preds = %165, %141, %131
  store i32 0, ptr %17, align 4
  br label %167

167:                                              ; preds = %166, %40
  call void @llvm.lifetime.end.p0(i64 4, ptr %16) #6
  call void @llvm.lifetime.end.p0(i64 4, ptr %15) #6
  call void @llvm.lifetime.end.p0(i64 4, ptr %14) #6
  call void @llvm.lifetime.end.p0(i64 8, ptr %13) #6
  call void @llvm.lifetime.end.p0(i64 8, ptr %12) #6
  %168 = load i32, ptr %17, align 4
  switch i32 %168, label %175 [
    i32 0, label %169
    i32 4, label %170
  ]

169:                                              ; preds = %167
  br label %170

170:                                              ; preds = %169, %167
  %171 = load i32, ptr %10, align 4
  %172 = add i32 %171, 1
  store i32 %172, ptr %10, align 4
  br label %28, !llvm.loop !12

173:                                              ; preds = %28
  %174 = load ptr, ptr %7, align 8
  store i32 1, ptr %17, align 4
  call void @llvm.lifetime.end.p0(i64 4, ptr %11) #6
  call void @llvm.lifetime.end.p0(i64 4, ptr %10) #6
  call void @llvm.lifetime.end.p0(i64 4, ptr %9) #6
  call void @llvm.lifetime.end.p0(i64 4, ptr %8) #6
  call void @llvm.lifetime.end.p0(i64 8, ptr %7) #6
  ret ptr %174

175:                                              ; preds = %167, %125
  unreachable
}